target datalayout = "e-m:e-p270:32:32-p271:32:32-p272:64:64-i64:64-i128:128-f80:128-n8:16:32:64-S128"
target triple = "x86_64-pc-linux-gnu"

%struct.ossl_decoder_ctx_st = type { ptr, ptr, i32, ptr, ptr, ptr, ptr, %struct.ossl_passphrase_data_st, i32 }
%struct.ossl_passphrase_data_st = type { i32, %union.anon, i8, ptr, i64 }
%union.anon = type { %struct.anon }
%struct.anon = type { ptr, i64 }

@.str = private unnamed_addr constant [46 x i8] c"../openssl/crypto/encode_decode/decoder_lib.c\00", align 1
@__func__.OSSL_DECODER_CTX_set_cleanup = private unnamed_addr constant [29 x i8] c"OSSL_DECODER_CTX_set_cleanup\00", align 1

; Function Attrs: nounwind uwtable
define i32 @OSSL_DECODER_CTX_set_cleanup(ptr noundef %0, ptr noundef %1) #0 {
  %3 = alloca i32, align 4
  %4 = alloca ptr, align 8
  %5 = alloca ptr, align 8
  store ptr %0, ptr %4, align 8, !tbaa !3
  store ptr %1, ptr %5, align 8, !tbaa !27
  %6 = load ptr, ptr %4, align 8, !tbaa !3
  %7 = icmp ne ptr %6, null
  %8 = zext i1 %7 to i32
  %9 = icmp ne i32 %8, 0
  %10 = xor i1 %9, true
  %11 = xor i1 %10, true
  %12 = zext i1 %11 to i32
  %13 = sext i32 %12 to i64
  %14 = call i64 @llvm.expect.i64(i64 %13, i64 1)
  %15 = icmp ne i64 %14, 0
  br i1 %15, label %17, label %16

16:                                               ; preds = %2
  call void @ERR_new()
  call void @ERR_set_debug(ptr noundef @.str, i32 noundef 636, ptr noundef @__func__.OSSL_DECODER_CTX_set_cleanup)
  call void (i32, i32, ptr, ...) @ERR_set_error(i32 noundef 60, i32 noundef 786690, ptr noundef null)
  store i32 0, ptr %3, align 4
  br label %21

17:                                               ; preds = %2
  %18 = load ptr, ptr %5, align 8, !tbaa !27
  %19 = load ptr, ptr %4, align 8, !tbaa !3
  %20 = getelementptr inbounds nuw %struct.ossl_decoder_ctx_st, ptr %19, i32 0, i32 5
  store ptr %18, ptr %20, align 8, !tbaa !97
  store i32 1, ptr %3, align 4
  br label %21

21:                                               ; preds = %17, %16
  %22 = load i32, ptr %3, align 4
  ret i32 %22
}